target datalayout = "e-m:e-p270:32:32-p271:32:32-p272:64:64-i64:64-i128:128-f80:128-n8:16:32:64-S128"
target triple = "x86_64-pc-linux-gnu"

%struct._object = type { %union.anon, ptr }
%union.anon = type { i64 }
%struct.anon.0 = type { i32, %struct.PyMemAllocatorEx, %struct.PyMemAllocatorEx, %struct.PyMemAllocatorEx }
%struct.PyMemAllocatorEx = type { ptr, ptr, ptr, ptr, ptr }
%struct.anon.1 = type { i32, i32, i64 }

@_Py_NoneStruct = external global %struct._object, align 8
@FmHook = internal global %struct.anon.0 zeroinitializer, align 8
@FmData = internal global %struct.anon.1 zeroinitializer, align 8
@.str.19 = private unnamed_addr constant [4 x i8] c"i|i\00", align 1

; Function Attrs: nounwind uwtable
define internal void @fm_setup_hooks() #0 {
  %1 = alloca %struct.PyMemAllocatorEx, align 8
  %2 = load i32, ptr @FmHook, align 8, !tbaa !30
  %3 = icmp ne i32 %2, 0
  br i1 %3, label %4, label %5

4:                                                ; preds = %0
  br label %13

5:                                                ; preds = %0
  store i32 1, ptr @FmHook, align 8, !tbaa !30
  call void @llvm.lifetime.start.p0(i64 40, ptr %1) #6
  %6 = getelementptr inbounds nuw %struct.PyMemAllocatorEx, ptr %1, i32 0, i32 1
  store ptr @hook_fmalloc, ptr %6, align 8, !tbaa !33
  %7 = getelementptr inbounds nuw %struct.PyMemAllocatorEx, ptr %1, i32 0, i32 2
  store ptr @hook_fcalloc, ptr %7, align 8, !tbaa !34
  %8 = getelementptr inbounds nuw %struct.PyMemAllocatorEx, ptr %1, i32 0, i32 3
  store ptr @hook_frealloc, ptr %8, align 8, !tbaa !35
  %9 = getelementptr inbounds nuw %struct.PyMemAllocatorEx, ptr %1, i32 0, i32 4
  store ptr @hook_ffree, ptr %9, align 8, !tbaa !36
  call void @PyMem_GetAllocator(i32 noundef 0, ptr noundef getelementptr inbounds nuw (%struct.anon.0, ptr @FmHook, i32 0, i32 1))
  call void @PyMem_GetAllocator(i32 noundef 1, ptr noundef getelementptr inbounds nuw (%struct.anon.0, ptr @FmHook, i32 0, i32 2))
  call void @PyMem_GetAllocator(i32 noundef 2, ptr noundef getelementptr inbounds nuw (%struct.anon.0, ptr @FmHook, i32 0, i32 3))
  %10 = getelementptr inbounds nuw %struct.PyMemAllocatorEx, ptr %1, i32 0, i32 0
  store ptr getelementptr inbounds nuw (%struct.anon.0, ptr @FmHook, i32 0, i32 1), ptr %10, align 8, !tbaa !37
  call void @PyMem_SetAllocator(i32 noundef 0, ptr noundef %1)
  %11 = getelementptr inbounds nuw %struct.PyMemAllocatorEx, ptr %1, i32 0, i32 0
  store ptr getelementptr inbounds nuw (%struct.anon.0, ptr @FmHook, i32 0, i32 2), ptr %11, align 8, !tbaa !37
  call void @PyMem_SetAllocator(i32 noundef 1, ptr noundef %1)
  %12 = getelementptr inbounds nuw %struct.PyMemAllocatorEx, ptr %1, i32 0, i32 0
  store ptr getelementptr inbounds nuw (%struct.anon.0, ptr @FmHook, i32 0, i32 3), ptr %12, align 8, !tbaa !37
  call void @PyMem_SetAllocator(i32 noundef 2, ptr noundef %1)
  call void @llvm.lifetime.end.p0(i64 40, ptr %1) #6
  br label %13

13:                                               ; preds = %5, %4
  ret void
}

; Function Attrs: nounwind uwtable
define internal ptr @set_nomemory(ptr noundef %0, ptr noundef %1) #0 {
  %3 = alloca ptr, align 8
  %4 = alloca ptr, align 8
  %5 = alloca ptr, align 8
  store ptr %0, ptr %4, align 8, !tbaa !3
  store ptr %1, ptr %5, align 8, !tbaa !3
  store i64 0, ptr getelementptr inbounds nuw (%struct.anon.1, ptr @FmData, i32 0, i32 2), align 8, !tbaa !13
  store i32 0, ptr getelementptr inbounds nuw (%struct.anon.1, ptr @FmData, i32 0, i32 1), align 4, !tbaa !17
  %6 = load ptr, ptr %5, align 8, !tbaa !3
  %7 = call i32 (ptr, ptr, ...) @PyArg_ParseTuple(ptr noundef %6, ptr noundef @.str.19, ptr noundef @FmData, ptr noundef getelementptr inbounds nuw (%struct.anon.1, ptr @FmData, i32 0, i32 1))
  %8 = icmp ne i32 %7, 0
  br i1 %8, label %10, label %9

9:                                                ; preds = %2
  store ptr null, ptr %3, align 8
  br label %11

10:                                               ; preds = %2
  call void @fm_setup_hooks()
  store ptr @_Py_NoneStruct, ptr %3, align 8
  br label %11

11:                                               ; preds = %10, %9
  %12 = load ptr, ptr %3, align 8
  ret ptr %12
}