; Function Attrs: nounwind uwtable
define internal noundef ptr @set_nomemory(ptr readnone captures(none) %0, ptr noundef %1) #0 {
  %3 = alloca %struct.PyMemAllocatorEx, align 8
  store i64 0, ptr getelementptr inbounds nuw (i8, ptr @FmData, i64 8), align 8, !tbaa !11
  store i32 0, ptr getelementptr inbounds nuw (i8, ptr @FmData, i64 4), align 4, !tbaa !14
  %4 = tail call i32 (ptr, ptr, ...) @PyArg_ParseTuple(ptr noundef %1, ptr noundef nonnull @.str.19, ptr noundef nonnull @FmData, ptr noundef nonnull getelementptr inbounds nuw (i8, ptr @FmData, i64 4)) #4
  %.not = icmp eq i32 %4, 0
  br i1 %.not, label %fm_setup_hooks.exit, label %5

5:                                                ; preds = %2
  %6 = load i32, ptr @FmHook, align 8, !tbaa !6
  %.not.i = icmp eq i32 %6, 0
  br i1 %.not.i, label %7, label %fm_setup_hooks.exit

7:                                                ; preds = %5
  store i32 1, ptr @FmHook, align 8, !tbaa !6
  call void @llvm.lifetime.start.p0(i64 40, ptr nonnull %3) #4
  %8 = getelementptr inbounds nuw i8, ptr %3, i64 8
  store ptr @hook_fmalloc, ptr %8, align 8, !tbaa !15
  %9 = getelementptr inbounds nuw i8, ptr %3, i64 16
  store ptr @hook_fcalloc, ptr %9, align 8, !tbaa !16
  %10 = getelementptr inbounds nuw i8, ptr %3, i64 24
  store ptr @hook_frealloc, ptr %10, align 8, !tbaa !17
  %11 = getelementptr inbounds nuw i8, ptr %3, i64 32
  store ptr @hook_ffree, ptr %11, align 8, !tbaa !18
  tail call void @PyMem_GetAllocator(i32 noundef 0, ptr noundef nonnull getelementptr inbounds nuw (i8, ptr @FmHook, i64 8)) #4
  tail call void @PyMem_GetAllocator(i32 noundef 1, ptr noundef nonnull getelementptr inbounds nuw (i8, ptr @FmHook, i64 48)) #4
  tail call void @PyMem_GetAllocator(i32 noundef 2, ptr noundef nonnull getelementptr inbounds nuw (i8, ptr @FmHook, i64 88)) #4
  store ptr getelementptr inbounds nuw (i8, ptr @FmHook, i64 8), ptr %3, align 8, !tbaa !19
  call void @PyMem_SetAllocator(i32 noundef 0, ptr noundef nonnull %3) #4
  store ptr getelementptr inbounds nuw (i8, ptr @FmHook, i64 48), ptr %3, align 8, !tbaa !19
  call void @PyMem_SetAllocator(i32 noundef 1, ptr noundef nonnull %3) #4
  store ptr getelementptr inbounds nuw (i8, ptr @FmHook, i64 88), ptr %3, align 8, !tbaa !19
  call void @PyMem_SetAllocator(i32 noundef 2, ptr noundef nonnull %3) #4
  call void @llvm.lifetime.end.p0(i64 40, ptr nonnull %3) #4
  br label %fm_setup_hooks.exit

fm_setup_hooks.exit:                              ; preds = %7, %5, %2
  %.0 = phi ptr [ null, %2 ], [ @_Py_NoneStruct, %5 ], [ @_Py_NoneStruct, %7 ]
  ret ptr %.0
}